; Function Attrs: mustprogress sspstrong uwtable
define noundef zeroext i1 @_ZN4FLAC8Metadata5Chain4readEPv17FLAC__IOCallbacksb(ptr nocapture noundef nonnull readonly align 8 dereferenceable(16) %this, ptr noundef %handle, ptr nocapture noundef readonly byval(%struct.FLAC__IOCallbacks) align 8 %callbacks, i1 noundef zeroext %is_ogg) local_unnamed_addr #0 align 2 {
entry:
  %chain_ = getelementptr inbounds i8, ptr %this, i64 8
  %0 = load ptr, ptr %chain_, align 8
  br i1 %is_ogg, label %cond.true, label %cond.false

cond.true:                                        ; preds = %entry
  %call = tail call i32 @FLAC__metadata_chain_read_ogg_with_callbacks(ptr noundef %0, ptr noundef %handle, ptr noundef nonnull byval(%struct.FLAC__IOCallbacks) align 8 %callbacks)
  br label %cond.end

cond.false:                                       ; preds = %entry
  %call5 = tail call i32 @FLAC__metadata_chain_read_with_callbacks(ptr noundef %0, ptr noundef %handle, ptr noundef nonnull byval(%struct.FLAC__IOCallbacks) align 8 %callbacks)
  br label %cond.end

cond.end:                                         ; preds = %cond.false, %cond.true
  %cond.in = phi i32 [ %call, %cond.true ], [ %call5, %cond.false ]
  %cond = icmp ne i32 %cond.in, 0
  ret i1 %cond
}